target datalayout = "e-m:e-p270:32:32-p271:32:32-p272:64:64-i64:64-i128:128-f80:128-n8:16:32:64-S128"
target triple = "x86_64-pc-linux-gnu"

; Function Attrs: inlinehint mustprogress nounwind uwtable
define internal noundef signext i8 @_ZL9U_FAILURE10UErrorCode(i32 noundef %0) #6 {
  %2 = alloca i32, align 4
  store i32 %0, ptr %2, align 4, !tbaa !30
  %3 = load i32, ptr %2, align 4, !tbaa !30
  %4 = icmp sgt i32 %3, 0
  %5 = zext i1 %4 to i8
  ret i8 %5
}

; Function Attrs: mustprogress uwtable
define i32 @ustrcase_map_77(i32 noundef %0, i32 noundef %1, ptr noundef %2, ptr noundef %3, i32 noundef %4, ptr noundef %5, i32 noundef %6, ptr noundef %7, ptr noundef %8, ptr noundef nonnull align 4 dereferenceable(4) %9) #0 {
  %11 = alloca i32, align 4
  %12 = alloca i32, align 4
  %13 = alloca i32, align 4
  %14 = alloca ptr, align 8
  %15 = alloca ptr, align 8
  %16 = alloca i32, align 4
  %17 = alloca ptr, align 8
  %18 = alloca i32, align 4
  %19 = alloca ptr, align 8
  %20 = alloca ptr, align 8
  %21 = alloca ptr, align 8
  %22 = alloca i32, align 4
  %23 = alloca i32, align 4
  store i32 %0, ptr %12, align 4, !tbaa !3
  store i32 %1, ptr %13, align 4, !tbaa !3
  store ptr %2, ptr %14, align 8, !tbaa !7
  store ptr %3, ptr %15, align 8, !tbaa !10
  store i32 %4, ptr %16, align 4, !tbaa !3
  store ptr %5, ptr %17, align 8, !tbaa !10
  store i32 %6, ptr %18, align 4, !tbaa !3
  store ptr %7, ptr %19, align 8, !tbaa !14
  store ptr %8, ptr %20, align 8, !tbaa !12
  store ptr %9, ptr %21, align 8, !tbaa !14
  call void @llvm.lifetime.start.p0(i64 4, ptr %22) #9
  %24 = load ptr, ptr %21, align 8, !tbaa !14
  %25 = load i32, ptr %24, align 4, !tbaa !30
  %26 = call noundef signext i8 @_ZL9U_FAILURE10UErrorCode(i32 noundef %25)
  %27 = icmp ne i8 %26, 0
  br i1 %27, label %28, label %29

28:                                               ; preds = %10
  store i32 0, ptr %11, align 4
  store i32 1, ptr %23, align 4
  br label %105

29:                                               ; preds = %10
  %30 = load i32, ptr %16, align 4, !tbaa !3
  %31 = icmp slt i32 %30, 0
  br i1 %31, label %44, label %32

32:                                               ; preds = %29
  %33 = load ptr, ptr %15, align 8, !tbaa !10
  %34 = icmp eq ptr %33, null
  br i1 %34, label %35, label %38

35:                                               ; preds = %32
  %36 = load i32, ptr %16, align 4, !tbaa !3
  %37 = icmp sgt i32 %36, 0
  br i1 %37, label %44, label %38

38:                                               ; preds = %35, %32
  %39 = load ptr, ptr %17, align 8, !tbaa !10
  %40 = icmp eq ptr %39, null
  br i1 %40, label %44, label %41

41:                                               ; preds = %38
  %42 = load i32, ptr %18, align 4, !tbaa !3
  %43 = icmp slt i32 %42, -1
  br i1 %43, label %44, label %46

44:                                               ; preds = %41, %38, %35, %29
  %45 = load ptr, ptr %21, align 8, !tbaa !14
  store i32 1, ptr %45, align 4, !tbaa !30
  store i32 0, ptr %11, align 4
  store i32 1, ptr %23, align 4
  br label %105

46:                                               ; preds = %41
  %47 = load i32, ptr %18, align 4, !tbaa !3
  %48 = icmp eq i32 %47, -1
  br i1 %48, label %49, label %52

49:                                               ; preds = %46
  %50 = load ptr, ptr %17, align 8, !tbaa !10
  %51 = call i32 @u_strlen_77(ptr noundef %50)
  store i32 %51, ptr %18, align 4, !tbaa !3
  br label %52

52:                                               ; preds = %49, %46
  %53 = load ptr, ptr %15, align 8, !tbaa !10
  %54 = icmp ne ptr %53, null
  br i1 %54, label %55, label %79

55:                                               ; preds = %52
  %56 = load ptr, ptr %17, align 8, !tbaa !10
  %57 = load ptr, ptr %15, align 8, !tbaa !10
  %58 = icmp uge ptr %56, %57
  br i1 %58, label %59, label %66

59:                                               ; preds = %55
  %60 = load ptr, ptr %17, align 8, !tbaa !10
  %61 = load ptr, ptr %15, align 8, !tbaa !10
  %62 = load i32, ptr %16, align 4, !tbaa !3
  %63 = sext i32 %62 to i64
  %64 = getelementptr inbounds i16, ptr %61, i64 %63
  %65 = icmp ult ptr %60, %64
  br i1 %65, label %77, label %66

66:                                               ; preds = %59, %55
  %67 = load ptr, ptr %15, align 8, !tbaa !10
  %68 = load ptr, ptr %17, align 8, !tbaa !10
  %69 = icmp uge ptr %67, %68
  br i1 %69, label %70, label %79

70:                                               ; preds = %66
  %71 = load ptr, ptr %15, align 8, !tbaa !10
  %72 = load ptr, ptr %17, align 8, !tbaa !10
  %73 = load i32, ptr %18, align 4, !tbaa !3
  %74 = sext i32 %73 to i64
  %75 = getelementptr inbounds i16, ptr %72, i64 %74
  %76 = icmp ult ptr %71, %75
  br i1 %76, label %77, label %79

77:                                               ; preds = %70, %59
  %78 = load ptr, ptr %21, align 8, !tbaa !14
  store i32 1, ptr %78, align 4, !tbaa !30
  store i32 0, ptr %11, align 4
  store i32 1, ptr %23, align 4
  br label %105

79:                                               ; preds = %70, %66, %52
  %80 = load ptr, ptr %20, align 8, !tbaa !12
  %81 = icmp ne ptr %80, null
  br i1 %81, label %82, label %88

82:                                               ; preds = %79
  %83 = load i32, ptr %13, align 4, !tbaa !3
  %84 = and i32 %83, 8192
  %85 = icmp eq i32 %84, 0
  br i1 %85, label %86, label %88

86:                                               ; preds = %82
  %87 = load ptr, ptr %20, align 8, !tbaa !12
  call void @_ZN6icu_775Edits5resetEv(ptr noundef nonnull align 8 dereferenceable(232) %87) #9
  br label %88

88:                                               ; preds = %86, %82, %79
  %89 = load ptr, ptr %19, align 8, !tbaa !14
  %90 = load i32, ptr %12, align 4, !tbaa !3
  %91 = load i32, ptr %13, align 4, !tbaa !3
  %92 = load ptr, ptr %14, align 8, !tbaa !7
  %93 = load ptr, ptr %15, align 8, !tbaa !10
  %94 = load i32, ptr %16, align 4, !tbaa !3
  %95 = load ptr, ptr %17, align 8, !tbaa !10
  %96 = load i32, ptr %18, align 4, !tbaa !3
  %97 = load ptr, ptr %20, align 8, !tbaa !12
  %98 = load ptr, ptr %21, align 8, !tbaa !14
  %99 = call noundef i32 %89(i32 noundef %90, i32 noundef %91, ptr noundef %92, ptr noundef %93, i32 noundef %94, ptr noundef %95, i32 noundef %96, ptr noundef %97, ptr noundef nonnull align 4 dereferenceable(4) %98)
  store i32 %99, ptr %22, align 4, !tbaa !3
  %100 = load ptr, ptr %15, align 8, !tbaa !10
  %101 = load i32, ptr %16, align 4, !tbaa !3
  %102 = load i32, ptr %22, align 4, !tbaa !3
  %103 = load ptr, ptr %21, align 8, !tbaa !14
  %104 = call i32 @u_terminateUChars_77(ptr noundef %100, i32 noundef %101, i32 noundef %102, ptr noundef %103)
  store i32 %104, ptr %11, align 4
  store i32 1, ptr %23, align 4
  br label %105

105:                                              ; preds = %88, %77, %44, %28
  call void @llvm.lifetime.end.p0(i64 4, ptr %22) #9
  %106 = load i32, ptr %11, align 4
  ret i32 %106
}

; Function Attrs: mustprogress uwtable
define noundef i32 @_ZN6icu_777CaseMap4foldEjPKDsiPDsiPNS_5EditsER10UErrorCode(i32 noundef %0, ptr noundef %1, i32 noundef %2, ptr noundef %3, i32 noundef %4, ptr noundef %5, ptr noundef nonnull align 4 dereferenceable(4) %6) #0 align 2 {
  %8 = alloca i32, align 4
  %9 = alloca ptr, align 8
  %10 = alloca i32, align 4
  %11 = alloca ptr, align 8
  %12 = alloca i32, align 4
  %13 = alloca ptr, align 8
  %14 = alloca ptr, align 8
  store i32 %0, ptr %8, align 4, !tbaa !3
  store ptr %1, ptr %9, align 8, !tbaa !10
  store i32 %2, ptr %10, align 4, !tbaa !3
  store ptr %3, ptr %11, align 8, !tbaa !10
  store i32 %4, ptr %12, align 4, !tbaa !3
  store ptr %5, ptr %13, align 8, !tbaa !12
  store ptr %6, ptr %14, align 8, !tbaa !14
  %15 = load i32, ptr %8, align 4, !tbaa !3
  %16 = load ptr, ptr %11, align 8, !tbaa !10
  %17 = load i32, ptr %12, align 4, !tbaa !3
  %18 = load ptr, ptr %9, align 8, !tbaa !10
  %19 = load i32, ptr %10, align 4, !tbaa !3
  %20 = load ptr, ptr %13, align 8, !tbaa !12
  %21 = load ptr, ptr %14, align 8, !tbaa !14
  %22 = call i32 @ustrcase_map_77(i32 noundef 1, i32 noundef %15, ptr noundef null, ptr noundef %16, i32 noundef %17, ptr noundef %18, i32 noundef %19, ptr noundef @ustrcase_internalFold_77, ptr noundef %20, ptr noundef nonnull align 4 dereferenceable(4) %21)
  ret i32 %22
}