; Function Attrs: mustprogress uwtable
define noundef i32 @_ZN6icu_777CaseMap4foldEjPKDsiPDsiPNS_5EditsER10UErrorCode(i32 noundef %0, ptr noundef %1, i32 noundef %2, ptr noundef %3, i32 noundef %4, ptr noundef %5, ptr noundef nonnull align 4 dereferenceable(4) %6) local_unnamed_addr #0 align 2 {
  %8 = load i32, ptr %6, align 4, !tbaa !3
  %9 = icmp slt i32 %8, 1
  br i1 %9, label %10, label %ustrcase_map_77.exit

10:                                               ; preds = %7
  %11 = icmp slt i32 %4, 0
  br i1 %11, label %17, label %12

12:                                               ; preds = %10
  %13 = icmp eq ptr %3, null
  %14 = icmp ne i32 %4, 0
  %or.cond.i = and i1 %13, %14
  %15 = icmp eq ptr %1, null
  %or.cond3.i = or i1 %15, %or.cond.i
  %16 = icmp slt i32 %2, -1
  %or.cond5.i = or i1 %16, %or.cond3.i
  br i1 %or.cond5.i, label %17, label %18

17:                                               ; preds = %12, %10
  store i32 1, ptr %6, align 4, !tbaa !3
  br label %ustrcase_map_77.exit

18:                                               ; preds = %12
  %19 = icmp eq i32 %2, -1
  br i1 %19, label %20, label %22

20:                                               ; preds = %18
  %21 = tail call i32 @u_strlen_77(ptr noundef nonnull %1)
  br label %22

22:                                               ; preds = %20, %18
  %.043.i = phi i32 [ %21, %20 ], [ %2, %18 ]
  br i1 %13, label %32, label %23

23:                                               ; preds = %22
  %.not50.i = icmp uge ptr %1, %3
  %24 = zext nneg i32 %4 to i64
  %25 = getelementptr inbounds nuw i16, ptr %3, i64 %24
  %26 = icmp ult ptr %1, %25
  %or.cond55.i = select i1 %.not50.i, i1 %26, i1 false
  br i1 %or.cond55.i, label %31, label %27

27:                                               ; preds = %23
  %.not51.i = icmp uge ptr %3, %1
  %28 = sext i32 %.043.i to i64
  %29 = getelementptr inbounds i16, ptr %1, i64 %28
  %30 = icmp ult ptr %3, %29
  %or.cond58.i = select i1 %.not51.i, i1 %30, i1 false
  br i1 %or.cond58.i, label %31, label %32

31:                                               ; preds = %27, %23
  store i32 1, ptr %6, align 4, !tbaa !3
  br label %ustrcase_map_77.exit

32:                                               ; preds = %27, %22
  %.not52.i = icmp ne ptr %5, null
  %33 = and i32 %0, 8192
  %34 = icmp eq i32 %33, 0
  %or.cond60.i = and i1 %34, %.not52.i
  br i1 %or.cond60.i, label %35, label %36

35:                                               ; preds = %32
  tail call void @_ZN6icu_775Edits5resetEv(ptr noundef nonnull align 8 dereferenceable(232) %5) #10
  br label %36

36:                                               ; preds = %35, %32
  %37 = tail call fastcc noundef i32 @_ZN6icu_7712_GLOBAL__N_17toLowerEijPDsiPKDsP12UCaseContextiiPNS_5EditsER10UErrorCode(i32 noundef -1, i32 noundef %0, ptr noundef %3, i32 noundef %4, ptr noundef nonnull %1, ptr noundef null, i32 noundef 0, i32 noundef %.043.i, ptr noundef %5, ptr noundef nonnull align 4 dereferenceable(4) %6)
  %38 = load i32, ptr %6, align 4, !tbaa !3
  %39 = icmp sgt i32 %38, 0
  br i1 %39, label %ustrcase_internalFold_77.exit, label %40

40:                                               ; preds = %36
  %41 = icmp samesign ugt i32 %37, %4
  br i1 %41, label %42, label %43

42:                                               ; preds = %40
  store i32 15, ptr %6, align 4, !tbaa !3
  br label %ustrcase_internalFold_77.exit

43:                                               ; preds = %40
  %.not7.i.i = icmp eq ptr %5, null
  br i1 %.not7.i.i, label %ustrcase_internalFold_77.exit, label %44

44:                                               ; preds = %43
  %45 = tail call noundef signext i8 @_ZNK6icu_775Edits11copyErrorToER10UErrorCode(ptr noundef nonnull align 8 dereferenceable(232) %5, ptr noundef nonnull align 4 dereferenceable(4) %6)
  br label %ustrcase_internalFold_77.exit

ustrcase_internalFold_77.exit:                    ; preds = %36, %42, %43, %44
  %46 = tail call i32 @u_terminateUChars_77(ptr noundef %3, i32 noundef %4, i32 noundef %37, ptr noundef nonnull align 4 dereferenceable(4) %6)
  br label %ustrcase_map_77.exit

ustrcase_map_77.exit:                             ; preds = %7, %17, %31, %ustrcase_internalFold_77.exit
  %.0.i = phi i32 [ 0, %17 ], [ 0, %31 ], [ %46, %ustrcase_internalFold_77.exit ], [ 0, %7 ]
  ret i32 %.0.i
}